; Function Attrs: nounwind uwtable
define internal fastcc void @normal_io_write_fl(ptr noundef %0, i32 noundef %1, ptr noundef nonnull %2) unnamed_addr #0 {
strbuf_setlen.exit.i:
  %3 = alloca %struct.tr2_tbuf, align 1
  %4 = alloca %struct.strbuf, align 8
  call void @llvm.lifetime.start.p0(i64 24, ptr nonnull %4) #7
  call void @llvm.memcpy.p0.p0.i64(ptr noundef nonnull align 8 dereferenceable(24) %4, ptr noundef nonnull align 8 dereferenceable(24) @__const.fn_counter.buf_payload, i64 24, i1 false)
  %5 = getelementptr inbounds nuw i8, ptr %4, i64 8
  store i64 0, ptr %5, align 8, !tbaa !14
  %6 = getelementptr inbounds nuw i8, ptr %4, i64 16
  %7 = load i32, ptr @tr2env_normal_be_brief, align 4, !tbaa !7
  %.not.i = icmp eq i32 %7, 0
  br i1 %.not.i, label %8, label %normal_fmt_prepare.exit

8:                                                ; preds = %strbuf_setlen.exit.i
  call void @llvm.lifetime.start.p0(i64 32, ptr nonnull %3) #7
  call void @tr2_tbuf_local_time(ptr noundef nonnull %3) #7
  %9 = call i64 @strlen(ptr noundef nonnull dereferenceable(1) %3) #8
  call void @strbuf_add(ptr noundef nonnull %4, ptr noundef nonnull %3, i64 noundef %9) #7
  %10 = load i64, ptr %4, align 8, !tbaa !9
  %.not.i.i.i = icmp eq i64 %10, 0
  br i1 %.not.i.i.i, label %strbuf_avail.exit.thread.i.i, label %strbuf_avail.exit.i.i

strbuf_avail.exit.i.i:                            ; preds = %8
  %11 = load i64, ptr %5, align 8, !tbaa !14
  %.neg.i.i = add i64 %11, 1
  %.not.i.i = icmp eq i64 %10, %.neg.i.i
  br i1 %.not.i.i, label %strbuf_avail.exit.thread.i.i, label %strbuf_addch.exit.i

strbuf_avail.exit.thread.i.i:                     ; preds = %strbuf_avail.exit.i.i, %8
  call void @strbuf_grow(ptr noundef nonnull %4, i64 noundef 1) #7
  %.pre.i.i = load i64, ptr %5, align 8, !tbaa !14
  %.pre7.i.i = add i64 %.pre.i.i, 1
  br label %strbuf_addch.exit.i

strbuf_addch.exit.i:                              ; preds = %strbuf_avail.exit.thread.i.i, %strbuf_avail.exit.i.i
  %.pre-phi.i.i = phi i64 [ %.pre7.i.i, %strbuf_avail.exit.thread.i.i ], [ %.neg.i.i, %strbuf_avail.exit.i.i ]
  %12 = phi i64 [ %.pre.i.i, %strbuf_avail.exit.thread.i.i ], [ %11, %strbuf_avail.exit.i.i ]
  %13 = load ptr, ptr %6, align 8, !tbaa !15
  store i64 %.pre-phi.i.i, ptr %5, align 8, !tbaa !14
  %14 = getelementptr inbounds nuw i8, ptr %13, i64 %12
  store i8 32, ptr %14, align 1, !tbaa !4
  %15 = load ptr, ptr %6, align 8, !tbaa !15
  %16 = load i64, ptr %5, align 8, !tbaa !14
  %17 = getelementptr inbounds nuw i8, ptr %15, i64 %16
  store i8 0, ptr %17, align 1, !tbaa !4
  %.not9.i = icmp eq ptr %0, null
  br i1 %.not9.i, label %21, label %18

18:                                               ; preds = %strbuf_addch.exit.i
  %19 = load i8, ptr %0, align 1, !tbaa !4
  %.not10.i = icmp eq i8 %19, 0
  br i1 %.not10.i, label %21, label %20

20:                                               ; preds = %18
  call void (ptr, ptr, ...) @strbuf_addf(ptr noundef nonnull %4, ptr noundef nonnull @.str.2, ptr noundef nonnull %0, i32 noundef %1) #7
  br label %21

21:                                               ; preds = %20, %18, %strbuf_addch.exit.i
  %22 = load i64, ptr %5, align 8, !tbaa !14
  %23 = icmp ult i64 %22, 50
  br i1 %23, label %.lr.ph.i, label %._crit_edge.i

.lr.ph.i:                                         ; preds = %21, %strbuf_addch.exit20.i
  %24 = phi i64 [ %32, %strbuf_addch.exit20.i ], [ %22, %21 ]
  %25 = load i64, ptr %4, align 8, !tbaa !9
  %.not.i.i11.i = icmp eq i64 %25, 0
  %.neg.i13.i = add nuw nsw i64 %24, 1
  %.not.i14.i = icmp eq i64 %25, %.neg.i13.i
  %or.cond.i = select i1 %.not.i.i11.i, i1 true, i1 %.not.i14.i
  br i1 %or.cond.i, label %strbuf_avail.exit.thread.i16.i, label %strbuf_addch.exit20.i

strbuf_avail.exit.thread.i16.i:                   ; preds = %.lr.ph.i
  call void @strbuf_grow(ptr noundef nonnull %4, i64 noundef 1) #7
  %.pre.i18.i = load i64, ptr %5, align 8, !tbaa !14
  %.pre7.i19.i = add i64 %.pre.i18.i, 1
  br label %strbuf_addch.exit20.i

strbuf_addch.exit20.i:                            ; preds = %strbuf_avail.exit.thread.i16.i, %.lr.ph.i
  %.pre-phi.i15.i = phi i64 [ %.pre7.i19.i, %strbuf_avail.exit.thread.i16.i ], [ %.neg.i13.i, %.lr.ph.i ]
  %26 = phi i64 [ %.pre.i18.i, %strbuf_avail.exit.thread.i16.i ], [ %24, %.lr.ph.i ]
  %27 = load ptr, ptr %6, align 8, !tbaa !15
  store i64 %.pre-phi.i15.i, ptr %5, align 8, !tbaa !14
  %28 = getelementptr inbounds nuw i8, ptr %27, i64 %26
  store i8 32, ptr %28, align 1, !tbaa !4
  %29 = load ptr, ptr %6, align 8, !tbaa !15
  %30 = load i64, ptr %5, align 8, !tbaa !14
  %31 = getelementptr inbounds nuw i8, ptr %29, i64 %30
  store i8 0, ptr %31, align 1, !tbaa !4
  %32 = load i64, ptr %5, align 8, !tbaa !14
  %33 = icmp ult i64 %32, 50
  br i1 %33, label %.lr.ph.i, label %._crit_edge.i, !llvm.loop !58

._crit_edge.i:                                    ; preds = %strbuf_addch.exit20.i, %21
  call void @llvm.lifetime.end.p0(i64 32, ptr nonnull %3) #7
  br label %normal_fmt_prepare.exit

normal_fmt_prepare.exit:                          ; preds = %strbuf_setlen.exit.i, %._crit_edge.i
  call void @strbuf_addbuf(ptr noundef nonnull %4, ptr noundef nonnull %2) #7
  call void @tr2_dst_write_line(ptr noundef nonnull @tr2dst_normal, ptr noundef nonnull %4) #7
  call void @strbuf_release(ptr noundef nonnull %4) #7
  call void @llvm.lifetime.end.p0(i64 24, ptr nonnull %4) #7
  ret void
}